; Function Attrs: mustprogress nofree norecurse nosync nounwind willreturn memory(argmem: read) uwtable
define noundef zeroext i1 @_ZNK10open_spiel13cliff_walking17CliffWalkingState7IsCliffEii(ptr noundef nonnull readonly align 8 captures(none) dereferenceable(84) %0, i32 noundef %1, i32 noundef %2) local_unnamed_addr #8 align 2 {
  %4 = icmp sgt i32 %2, 0
  br i1 %4, label %5, label %15

5:                                                ; preds = %3
  %6 = getelementptr inbounds nuw i8, ptr %0, i64 64
  %7 = load i32, ptr %6, align 8
  %8 = add nsw i32 %7, -1
  %9 = icmp slt i32 %2, %8
  br i1 %9, label %10, label %15

10:                                               ; preds = %5
  %11 = getelementptr inbounds nuw i8, ptr %0, i64 60
  %12 = load i32, ptr %11, align 4
  %13 = add nsw i32 %12, -1
  %14 = icmp eq i32 %1, %13
  br label %15

15:                                               ; preds = %10, %5, %3
  %16 = phi i1 [ false, %5 ], [ false, %3 ], [ %14, %10 ]
  ret i1 %16
}